target datalayout = "e-m:e-p270:32:32-p271:32:32-p272:64:64-i64:64-i128:128-f80:128-n8:16:32:64-S128"
target triple = "x86_64-pc-linux-gnu"

%class.VerificationType = type { %union.anon }
%union.anon = type { ptr }
%class.StackMapFrame = type { i32, i32, i32, i32, i16, i16, i8, ptr, ptr, ptr }
%class.ErrorContext = type { i32, i32, %class.TypeOrigin, %class.TypeOrigin }
%class.TypeOrigin = type { i32, i32, ptr, %class.VerificationType }

@.str.6 = private unnamed_addr constant [30 x i8] c"Local variable table overflow\00", align 1

; Function Attrs: mustprogress nounwind uwtable
define linkonce_odr hidden void @_ZN16VerificationTypeC2Ev(ptr noundef nonnull align 8 dereferenceable(8) %0) unnamed_addr #1 comdat align 2 {
  %2 = alloca ptr, align 8
  %3 = alloca %class.VerificationType, align 8
  store ptr %0, ptr %2, align 8
  %4 = load ptr, ptr %2, align 8
  %5 = call ptr @_ZN16VerificationType10bogus_typeEv()
  %6 = getelementptr inbounds %class.VerificationType, ptr %3, i32 0, i32 0
  %7 = getelementptr inbounds %union.anon, ptr %6, i32 0, i32 0
  store ptr %5, ptr %7, align 8
  call void @llvm.memcpy.p0.p0.i64(ptr align 8 %4, ptr align 8 %3, i64 8, i1 false)
  ret void
}

; Function Attrs: mustprogress nounwind uwtable
define linkonce_odr hidden void @_ZN10TypeOriginC2Ev(ptr noundef nonnull align 8 dereferenceable(24) %0) unnamed_addr #1 comdat align 2 {
  %2 = alloca ptr, align 8
  store ptr %0, ptr %2, align 8
  %3 = load ptr, ptr %2, align 8
  %4 = getelementptr inbounds %class.TypeOrigin, ptr %3, i32 0, i32 0
  store i32 9, ptr %4, align 8
  %5 = getelementptr inbounds %class.TypeOrigin, ptr %3, i32 0, i32 1
  store i32 0, ptr %5, align 4
  %6 = getelementptr inbounds %class.TypeOrigin, ptr %3, i32 0, i32 2
  store ptr null, ptr %6, align 8
  %7 = getelementptr inbounds %class.TypeOrigin, ptr %3, i32 0, i32 3
  call void @_ZN16VerificationTypeC2Ev(ptr noundef nonnull align 8 dereferenceable(8) %7)
  ret void
}

; Function Attrs: mustprogress nounwind uwtable
define linkonce_odr hidden void @_ZN16VerificationTypeC2Em(ptr noundef nonnull align 8 dereferenceable(8) %0, i64 noundef %1) unnamed_addr #1 comdat align 2 {
  %3 = alloca ptr, align 8
  %4 = alloca i64, align 8
  store ptr %0, ptr %3, align 8
  store i64 %1, ptr %4, align 8
  %5 = load ptr, ptr %3, align 8
  %6 = load i64, ptr %4, align 8
  %7 = getelementptr inbounds %class.VerificationType, ptr %5, i32 0, i32 0
  store i64 %6, ptr %7, align 8
  ret void
}

; Function Attrs: mustprogress nounwind uwtable
define linkonce_odr hidden void @_ZN12ErrorContextC2EiNS_9FaultTypeE10TypeOrigin(ptr noundef nonnull align 8 dereferenceable(56) %0, i32 noundef %1, i32 noundef %2, ptr noundef byval(%class.TypeOrigin) align 8 %3) unnamed_addr #1 comdat align 2 {
  %5 = alloca ptr, align 8
  %6 = alloca i32, align 4
  %7 = alloca i32, align 4
  store ptr %0, ptr %5, align 8
  store i32 %1, ptr %6, align 4
  store i32 %2, ptr %7, align 4
  %8 = load ptr, ptr %5, align 8
  %9 = getelementptr inbounds %class.ErrorContext, ptr %8, i32 0, i32 0
  %10 = load i32, ptr %6, align 4
  store i32 %10, ptr %9, align 8
  %11 = getelementptr inbounds %class.ErrorContext, ptr %8, i32 0, i32 1
  %12 = load i32, ptr %7, align 4
  store i32 %12, ptr %11, align 4
  %13 = getelementptr inbounds %class.ErrorContext, ptr %8, i32 0, i32 2
  call void @llvm.memcpy.p0.p0.i64(ptr align 8 %13, ptr align 8 %3, i64 24, i1 false)
  %14 = getelementptr inbounds %class.ErrorContext, ptr %8, i32 0, i32 3
  call void @_ZN10TypeOriginC2Ev(ptr noundef nonnull align 8 dereferenceable(24) %14)
  ret void
}

; Function Attrs: mustprogress nounwind uwtable
define linkonce_odr hidden noundef zeroext i1 @_ZNK16VerificationType8is_long2Ev(ptr noundef nonnull align 8 dereferenceable(8) %0) #1 comdat align 2 {
  %2 = alloca ptr, align 8
  store ptr %0, ptr %2, align 8
  %3 = load ptr, ptr %2, align 8
  %4 = getelementptr inbounds %class.VerificationType, ptr %3, i32 0, i32 0
  %5 = load i64, ptr %4, align 8
  %6 = icmp eq i64 %5, 852993
  ret i1 %6
}

; Function Attrs: mustprogress nounwind uwtable
define linkonce_odr hidden noundef zeroext i1 @_ZNK16VerificationType10is_double2Ev(ptr noundef nonnull align 8 dereferenceable(8) %0) #1 comdat align 2 {
  %2 = alloca ptr, align 8
  store ptr %0, ptr %2, align 8
  %3 = load ptr, ptr %2, align 8
  %4 = getelementptr inbounds %class.VerificationType, ptr %3, i32 0, i32 0
  %5 = load i64, ptr %4, align 8
  %6 = icmp eq i64 %5, 918529
  ret i1 %6
}

; Function Attrs: mustprogress nounwind uwtable
define linkonce_odr hidden ptr @_ZN16VerificationType10bogus_typeEv() #1 comdat align 2 {
  %1 = alloca %class.VerificationType, align 8
  call void @_ZN16VerificationTypeC2Em(ptr noundef nonnull align 8 dereferenceable(8) %1, i64 noundef 4294901761)
  %2 = getelementptr inbounds %class.VerificationType, ptr %1, i32 0, i32 0
  %3 = getelementptr inbounds %union.anon, ptr %2, i32 0, i32 0
  %4 = load ptr, ptr %3, align 8
  ret ptr %4
}

; Function Attrs: mustprogress nounwind uwtable
define linkonce_odr hidden noundef zeroext i1 @_ZNK16VerificationType7is_longEv(ptr noundef nonnull align 8 dereferenceable(8) %0) #1 comdat align 2 {
  %2 = alloca ptr, align 8
  store ptr %0, ptr %2, align 8
  %3 = load ptr, ptr %2, align 8
  %4 = getelementptr inbounds %class.VerificationType, ptr %3, i32 0, i32 0
  %5 = load i64, ptr %4, align 8
  %6 = icmp eq i64 %5, 262657
  ret i1 %6
}

; Function Attrs: mustprogress nounwind uwtable
define linkonce_odr hidden noundef zeroext i1 @_ZNK16VerificationType9is_doubleEv(ptr noundef nonnull align 8 dereferenceable(8) %0) #1 comdat align 2 {
  %2 = alloca ptr, align 8
  store ptr %0, ptr %2, align 8
  %3 = load ptr, ptr %2, align 8
  %4 = getelementptr inbounds %class.VerificationType, ptr %3, i32 0, i32 0
  %5 = load i64, ptr %4, align 8
  %6 = icmp eq i64 %5, 197121
  ret i1 %6
}

; Function Attrs: mustprogress nounwind uwtable
define linkonce_odr hidden void @_ZN12ErrorContext15bad_local_indexEii(ptr dead_on_unwind noalias writable sret(%class.ErrorContext) align 8 %0, i32 noundef %1, i32 noundef %2) #1 comdat align 2 {
  %4 = alloca i32, align 4
  %5 = alloca i32, align 4
  %6 = alloca %class.TypeOrigin, align 8
  store i32 %1, ptr %4, align 4
  store i32 %2, ptr %5, align 4
  %7 = load i32, ptr %4, align 4
  %8 = load i32, ptr %5, align 4
  call void @_ZN10TypeOrigin9bad_indexEi(ptr dead_on_unwind writable sret(%class.TypeOrigin) align 8 %6, i32 noundef %8)
  call void @_ZN12ErrorContextC2EiNS_9FaultTypeE10TypeOrigin(ptr noundef nonnull align 8 dereferenceable(56) %0, i32 noundef %7, i32 noundef 4, ptr noundef byval(%class.TypeOrigin) align 8 %6)
  ret void
}

; Function Attrs: mustprogress nounwind uwtable
define linkonce_odr hidden noundef ptr @_ZNK13StackMapFrame8verifierEv(ptr noundef nonnull align 8 dereferenceable(48) %0) #1 comdat align 2 {
  %2 = alloca ptr, align 8
  store ptr %0, ptr %2, align 8
  %3 = load ptr, ptr %2, align 8
  %4 = getelementptr inbounds %class.StackMapFrame, ptr %3, i32 0, i32 9
  %5 = load ptr, ptr %4, align 8
  ret ptr %5
}

; Function Attrs: mustprogress nounwind uwtable
define hidden void @_ZN13StackMapFrame11set_local_2Ei16VerificationTypeS0_P10JavaThread(ptr noundef nonnull align 8 dereferenceable(48) %0, i32 noundef %1, ptr %2, ptr %3, ptr noundef %4) #1 align 2 {
  %6 = alloca %class.VerificationType, align 8
  %7 = alloca %class.VerificationType, align 8
  %8 = alloca ptr, align 8
  %9 = alloca i32, align 4
  %10 = alloca ptr, align 8
  %11 = alloca %class.ErrorContext, align 8
  %12 = alloca %class.VerificationType, align 8
  %13 = alloca %class.VerificationType, align 8
  %14 = getelementptr inbounds %class.VerificationType, ptr %6, i32 0, i32 0
  %15 = getelementptr inbounds %union.anon, ptr %14, i32 0, i32 0
  store ptr %2, ptr %15, align 8
  %16 = getelementptr inbounds %class.VerificationType, ptr %7, i32 0, i32 0
  %17 = getelementptr inbounds %union.anon, ptr %16, i32 0, i32 0
  store ptr %3, ptr %17, align 8
  store ptr %0, ptr %8, align 8
  store i32 %1, ptr %9, align 4
  store ptr %4, ptr %10, align 8
  %18 = load ptr, ptr %8, align 8
  %19 = load i32, ptr %9, align 4
  %20 = getelementptr inbounds %class.StackMapFrame, ptr %18, i32 0, i32 4
  %21 = load i16, ptr %20, align 8
  %22 = zext i16 %21 to i32
  %23 = sub nsw i32 %22, 1
  %24 = icmp sge i32 %19, %23
  br i1 %24, label %25, label %30

25:                                               ; preds = %5
  %26 = call noundef ptr @_ZNK13StackMapFrame8verifierEv(ptr noundef nonnull align 8 dereferenceable(48) %18)
  %27 = getelementptr inbounds %class.StackMapFrame, ptr %18, i32 0, i32 0
  %28 = load i32, ptr %27, align 8
  %29 = load i32, ptr %9, align 4
  call void @_ZN12ErrorContext15bad_local_indexEii(ptr dead_on_unwind writable sret(%class.ErrorContext) align 8 %11, i32 noundef %28, i32 noundef %29)
  call void (ptr, ptr, ptr, ...) @_ZN13ClassVerifier12verify_errorE12ErrorContextPKcz(ptr noundef nonnull align 8 dereferenceable(8192) %26, ptr noundef byval(%class.ErrorContext) align 8 %11, ptr noundef @.str.6)
  br label %101

30:                                               ; preds = %5
  %31 = getelementptr inbounds %class.StackMapFrame, ptr %18, i32 0, i32 7
  %32 = load ptr, ptr %31, align 8
  %33 = load i32, ptr %9, align 4
  %34 = add nsw i32 %33, 1
  %35 = sext i32 %34 to i64
  %36 = getelementptr inbounds %class.VerificationType, ptr %32, i64 %35
  %37 = call noundef zeroext i1 @_ZNK16VerificationType9is_doubleEv(ptr noundef nonnull align 8 dereferenceable(8) %36)
  br i1 %37, label %46, label %38

38:                                               ; preds = %30
  %39 = getelementptr inbounds %class.StackMapFrame, ptr %18, i32 0, i32 7
  %40 = load ptr, ptr %39, align 8
  %41 = load i32, ptr %9, align 4
  %42 = add nsw i32 %41, 1
  %43 = sext i32 %42 to i64
  %44 = getelementptr inbounds %class.VerificationType, ptr %40, i64 %43
  %45 = call noundef zeroext i1 @_ZNK16VerificationType7is_longEv(ptr noundef nonnull align 8 dereferenceable(8) %44)
  br i1 %45, label %46, label %56

46:                                               ; preds = %38, %30
  %47 = call ptr @_ZN16VerificationType10bogus_typeEv()
  %48 = getelementptr inbounds %class.VerificationType, ptr %12, i32 0, i32 0
  %49 = getelementptr inbounds %union.anon, ptr %48, i32 0, i32 0
  store ptr %47, ptr %49, align 8
  %50 = getelementptr inbounds %class.StackMapFrame, ptr %18, i32 0, i32 7
  %51 = load ptr, ptr %50, align 8
  %52 = load i32, ptr %9, align 4
  %53 = add nsw i32 %52, 2
  %54 = sext i32 %53 to i64
  %55 = getelementptr inbounds %class.VerificationType, ptr %51, i64 %54
  call void @llvm.memcpy.p0.p0.i64(ptr align 8 %55, ptr align 8 %12, i64 8, i1 false)
  br label %56

56:                                               ; preds = %46, %38
  %57 = getelementptr inbounds %class.StackMapFrame, ptr %18, i32 0, i32 7
  %58 = load ptr, ptr %57, align 8
  %59 = load i32, ptr %9, align 4
  %60 = sext i32 %59 to i64
  %61 = getelementptr inbounds %class.VerificationType, ptr %58, i64 %60
  %62 = call noundef zeroext i1 @_ZNK16VerificationType10is_double2Ev(ptr noundef nonnull align 8 dereferenceable(8) %61)
  br i1 %62, label %70, label %63

63:                                               ; preds = %56
  %64 = getelementptr inbounds %class.StackMapFrame, ptr %18, i32 0, i32 7
  %65 = load ptr, ptr %64, align 8
  %66 = load i32, ptr %9, align 4
  %67 = sext i32 %66 to i64
  %68 = getelementptr inbounds %class.VerificationType, ptr %65, i64 %67
  %69 = call noundef zeroext i1 @_ZNK16VerificationType8is_long2Ev(ptr noundef nonnull align 8 dereferenceable(8) %68)
  br i1 %69, label %70, label %80

70:                                               ; preds = %63, %56
  %71 = call ptr @_ZN16VerificationType10bogus_typeEv()
  %72 = getelementptr inbounds %class.VerificationType, ptr %13, i32 0, i32 0
  %73 = getelementptr inbounds %union.anon, ptr %72, i32 0, i32 0
  store ptr %71, ptr %73, align 8
  %74 = getelementptr inbounds %class.StackMapFrame, ptr %18, i32 0, i32 7
  %75 = load ptr, ptr %74, align 8
  %76 = load i32, ptr %9, align 4
  %77 = sub nsw i32 %76, 1
  %78 = sext i32 %77 to i64
  %79 = getelementptr inbounds %class.VerificationType, ptr %75, i64 %78
  call void @llvm.memcpy.p0.p0.i64(ptr align 8 %79, ptr align 8 %13, i64 8, i1 false)
  br label %80

80:                                               ; preds = %70, %63
  %81 = getelementptr inbounds %class.StackMapFrame, ptr %18, i32 0, i32 7
  %82 = load ptr, ptr %81, align 8
  %83 = load i32, ptr %9, align 4
  %84 = sext i32 %83 to i64
  %85 = getelementptr inbounds %class.VerificationType, ptr %82, i64 %84
  call void @llvm.memcpy.p0.p0.i64(ptr align 8 %85, ptr align 8 %6, i64 8, i1 false)
  %86 = getelementptr inbounds %class.StackMapFrame, ptr %18, i32 0, i32 7
  %87 = load ptr, ptr %86, align 8
  %88 = load i32, ptr %9, align 4
  %89 = add nsw i32 %88, 1
  %90 = sext i32 %89 to i64
  %91 = getelementptr inbounds %class.VerificationType, ptr %87, i64 %90
  call void @llvm.memcpy.p0.p0.i64(ptr align 8 %91, ptr align 8 %7, i64 8, i1 false)
  %92 = load i32, ptr %9, align 4
  %93 = getelementptr inbounds %class.StackMapFrame, ptr %18, i32 0, i32 1
  %94 = load i32, ptr %93, align 4
  %95 = sub nsw i32 %94, 1
  %96 = icmp sge i32 %92, %95
  br i1 %96, label %97, label %101

97:                                               ; preds = %80
  %98 = load i32, ptr %9, align 4
  %99 = add nsw i32 %98, 2
  %100 = getelementptr inbounds %class.StackMapFrame, ptr %18, i32 0, i32 1
  store i32 %99, ptr %100, align 4
  br label %101

101:                                              ; preds = %97, %80, %25
  ret void
}