; Function Attrs: mustprogress nounwind uwtable
define hidden void @_ZN13StackMapFrame11set_local_2Ei16VerificationTypeS0_P10JavaThread(ptr nocapture noundef nonnull align 8 dereferenceable(48) %0, i32 noundef %1, ptr %2, ptr %3, ptr nocapture noundef readnone %4) local_unnamed_addr #0 align 2 {
  %6 = alloca %class.ErrorContext, align 8
  %7 = getelementptr inbounds i8, ptr %0, i64 16
  %8 = load i16, ptr %7, align 8
  %9 = zext i16 %8 to i32
  %10 = add nsw i32 %9, -1
  %.not = icmp sgt i32 %10, %1
  br i1 %.not, label %21, label %11

11:                                               ; preds = %5
  %12 = getelementptr inbounds i8, ptr %0, i64 40
  %13 = load ptr, ptr %12, align 8
  %14 = load i32, ptr %0, align 8
  %15 = getelementptr inbounds i8, ptr %6, i64 8
  call void @_ZN10TypeOrigin9bad_indexEi(ptr dead_on_unwind nonnull writable sret(%class.TypeOrigin) align 8 %15, i32 noundef %1) #12
  store i32 %14, ptr %6, align 8, !alias.scope !51
  %16 = getelementptr inbounds i8, ptr %6, i64 4
  store i32 4, ptr %16, align 4, !alias.scope !51
  %17 = getelementptr inbounds i8, ptr %6, i64 32
  store i32 9, ptr %17, align 8, !alias.scope !51
  %18 = getelementptr inbounds i8, ptr %6, i64 36
  store i32 0, ptr %18, align 4, !alias.scope !51
  %19 = getelementptr inbounds i8, ptr %6, i64 40
  store ptr null, ptr %19, align 8, !alias.scope !51
  %20 = getelementptr inbounds i8, ptr %6, i64 48
  store ptr inttoptr (i64 4294901761 to ptr), ptr %20, align 8, !alias.scope !51
  call void (ptr, ptr, ptr, ...) @_ZN13ClassVerifier12verify_errorE12ErrorContextPKcz(ptr noundef nonnull align 8 dereferenceable(8192) %13, ptr noundef nonnull byval(%class.ErrorContext) align 8 %6, ptr noundef nonnull @.str.6) #12
  br label %48

21:                                               ; preds = %5
  %22 = getelementptr inbounds i8, ptr %0, i64 24
  %23 = load ptr, ptr %22, align 8
  %24 = add nsw i32 %1, 1
  %25 = sext i32 %24 to i64
  %26 = getelementptr inbounds %class.VerificationType, ptr %23, i64 %25
  %27 = load i64, ptr %26, align 8
  switch i64 %27, label %._crit_edge [
    i64 197121, label %28
    i64 262657, label %28
  ]

._crit_edge:                                      ; preds = %21
  %.pre17 = sext i32 %1 to i64
  br label %32

28:                                               ; preds = %21, %21
  %29 = sext i32 %1 to i64
  %30 = getelementptr %class.VerificationType, ptr %23, i64 %29
  %31 = getelementptr i8, ptr %30, i64 16
  store ptr inttoptr (i64 4294901761 to ptr), ptr %31, align 8
  %.pre = load ptr, ptr %22, align 8
  br label %32

32:                                               ; preds = %._crit_edge, %28
  %.pre-phi = phi i64 [ %.pre17, %._crit_edge ], [ %29, %28 ]
  %33 = phi ptr [ %23, %._crit_edge ], [ %.pre, %28 ]
  %34 = getelementptr inbounds %class.VerificationType, ptr %33, i64 %.pre-phi
  %35 = load i64, ptr %34, align 8
  switch i64 %35, label %38 [
    i64 918529, label %36
    i64 852993, label %36
  ]

36:                                               ; preds = %32, %32
  %37 = getelementptr i8, ptr %34, i64 -8
  store ptr inttoptr (i64 4294901761 to ptr), ptr %37, align 8
  %.pre16 = load ptr, ptr %22, align 8
  br label %38

38:                                               ; preds = %32, %36
  %39 = phi ptr [ %33, %32 ], [ %.pre16, %36 ]
  %40 = getelementptr inbounds %class.VerificationType, ptr %39, i64 %.pre-phi
  store ptr %2, ptr %40, align 8
  %41 = load ptr, ptr %22, align 8
  %42 = getelementptr inbounds %class.VerificationType, ptr %41, i64 %25
  store ptr %3, ptr %42, align 8
  %43 = getelementptr inbounds i8, ptr %0, i64 4
  %44 = load i32, ptr %43, align 4
  %45 = add nsw i32 %44, -1
  %.not15 = icmp sgt i32 %45, %1
  br i1 %.not15, label %48, label %46

46:                                               ; preds = %38
  %47 = add nsw i32 %1, 2
  store i32 %47, ptr %43, align 4
  br label %48

48:                                               ; preds = %46, %38, %11
  ret void
}